; Function Attrs: mustprogress uwtable
define void @_ZN16PickPointsDialog15setTemplateNameE7QString(ptr noundef nonnull align 8 dereferenceable(464) %0, ptr noundef nonnull %1) local_unnamed_addr #9 align 2 personality ptr @__gxx_personality_v0 {
  %3 = alloca %class.QString, align 8
  %4 = getelementptr inbounds i8, ptr %0, i64 376
  %5 = tail call noundef nonnull align 8 dereferenceable(8) ptr @_ZN7QStringaSERKS_(ptr noundef nonnull align 8 dereferenceable(8) %4, ptr noundef nonnull align 8 dereferenceable(8) %1) #27
  %6 = load ptr, ptr %4, align 8
  %7 = getelementptr inbounds i8, ptr %6, i64 16
  %8 = load i64, ptr %7, align 8
  %9 = getelementptr inbounds i8, ptr %6, i64 %8
  %10 = getelementptr inbounds i8, ptr %6, i64 4
  %11 = load i32, ptr %10, align 4
  %12 = tail call noundef i32 @_ZN7QString14compare_helperEPK5QChariPKciN2Qt15CaseSensitivityE(ptr noundef %9, i32 noundef %11, ptr noundef nonnull @.str.6, i32 noundef -1, i32 noundef 1)
  %13 = icmp eq i32 %12, 0
  %14 = getelementptr inbounds i8, ptr %0, i64 272
  %15 = load ptr, ptr %14, align 8
  br i1 %13, label %16, label %25

16:                                               ; preds = %2
  %17 = tail call noundef ptr @_ZN7QString16fromAscii_helperEPKci(ptr noundef nonnull @.str.103, i32 noundef 18)
  store ptr %17, ptr %3, align 8
  invoke void @_ZN6QLabel7setTextERK7QString(ptr noundef nonnull align 8 dereferenceable(48) %15, ptr noundef nonnull align 8 dereferenceable(8) %3)
          to label %18 unwind label %23

18:                                               ; preds = %16
  %19 = load ptr, ptr %3, align 8
  %20 = load atomic i32, ptr %19 monotonic, align 4
  switch i32 %20, label %_ZN9QtPrivate8RefCount5derefEv.exit.i [
    i32 0, label %_ZN9QtPrivate8RefCount5derefEv.exit.thread2.i
    i32 -1, label %_ZN7QStringD2Ev.exit
  ]

_ZN9QtPrivate8RefCount5derefEv.exit.i:            ; preds = %18
  %21 = atomicrmw sub ptr %19, i32 1 seq_cst, align 4
  %.not.i = icmp eq i32 %21, 1
  br i1 %.not.i, label %_ZN9QtPrivate8RefCount5derefEv.exit._ZN9QtPrivate8RefCount5derefEv.exit.thread2_crit_edge.i, label %_ZN7QStringD2Ev.exit

_ZN9QtPrivate8RefCount5derefEv.exit._ZN9QtPrivate8RefCount5derefEv.exit.thread2_crit_edge.i: ; preds = %_ZN9QtPrivate8RefCount5derefEv.exit.i
  %.pre.i = load ptr, ptr %3, align 8
  br label %_ZN9QtPrivate8RefCount5derefEv.exit.thread2.i

_ZN9QtPrivate8RefCount5derefEv.exit.thread2.i:    ; preds = %_ZN9QtPrivate8RefCount5derefEv.exit._ZN9QtPrivate8RefCount5derefEv.exit.thread2_crit_edge.i, %18
  %22 = phi ptr [ %.pre.i, %_ZN9QtPrivate8RefCount5derefEv.exit._ZN9QtPrivate8RefCount5derefEv.exit.thread2_crit_edge.i ], [ %19, %18 ]
  call void @_ZN10QArrayData10deallocateEPS_mm(ptr noundef %22, i64 noundef 2, i64 noundef 8) #27
  br label %_ZN7QStringD2Ev.exit

23:                                               ; preds = %16
  %24 = landingpad { ptr, i32 }
          cleanup
  call void @_ZN7QStringD2Ev(ptr noundef nonnull align 8 dereferenceable(8) %3) #27
  resume { ptr, i32 } %24

25:                                               ; preds = %2
  tail call void @_ZN6QLabel7setTextERK7QString(ptr noundef nonnull align 8 dereferenceable(48) %15, ptr noundef nonnull align 8 dereferenceable(8) %4)
  br label %_ZN7QStringD2Ev.exit

_ZN7QStringD2Ev.exit:                             ; preds = %_ZN9QtPrivate8RefCount5derefEv.exit.thread2.i, %_ZN9QtPrivate8RefCount5derefEv.exit.i, %18, %25
  %.sink = phi i8 [ 1, %25 ], [ 0, %18 ], [ 0, %_ZN9QtPrivate8RefCount5derefEv.exit.i ], [ 0, %_ZN9QtPrivate8RefCount5derefEv.exit.thread2.i ]
  %26 = getelementptr inbounds i8, ptr %0, i64 368
  store i8 %.sink, ptr %26, align 8
  ret void
}